target datalayout = "e-m:e-p270:32:32-p271:32:32-p272:64:64-i64:64-i128:128-f80:128-n8:16:32:64-S128"
target triple = "x86_64-unknown-linux-gnu"

%class.TlsCredentials = type { %struct.grpc_channel_credentials, %"class.grpc_core::RefCountedPtr" }
%struct.grpc_channel_credentials = type { %"class.grpc_core::RefCounted" }
%"class.grpc_core::RefCounted" = type { %"class.grpc_core::PolymorphicRefCount", %"class.grpc_core::RefCount" }
%"class.grpc_core::PolymorphicRefCount" = type { ptr }
%"class.grpc_core::RefCount" = type { %"struct.std::atomic" }
%"struct.std::atomic" = type { %"struct.std::__atomic_base" }
%"struct.std::__atomic_base" = type { i64 }
%"class.grpc_core::RefCountedPtr" = type { ptr }

; Function Attrs: mustprogress nounwind uwtable
define linkonce_odr noundef i32 @_ZN9grpc_core12QsortCompareIPK24grpc_channel_credentialsEEiRKT_S6_(ptr noundef nonnull align 8 dereferenceable(8) %a, ptr noundef nonnull align 8 dereferenceable(8) %b) #5 comdat {
entry:
  %retval = alloca i32, align 4
  %a.addr = alloca ptr, align 8
  %b.addr = alloca ptr, align 8
  store ptr %a, ptr %a.addr, align 8
  store ptr %b, ptr %b.addr, align 8
  %0 = load ptr, ptr %a.addr, align 8
  %1 = load ptr, ptr %0, align 8
  %2 = load ptr, ptr %b.addr, align 8
  %3 = load ptr, ptr %2, align 8
  %cmp = icmp ult ptr %1, %3
  br i1 %cmp, label %if.then, label %if.end

if.then:                                          ; preds = %entry
  store i32 -1, ptr %retval, align 4
  br label %return

if.end:                                           ; preds = %entry
  %4 = load ptr, ptr %b.addr, align 8
  %5 = load ptr, ptr %4, align 8
  %6 = load ptr, ptr %a.addr, align 8
  %7 = load ptr, ptr %6, align 8
  %cmp1 = icmp ult ptr %5, %7
  br i1 %cmp1, label %if.then2, label %if.end3

if.then2:                                         ; preds = %if.end
  store i32 1, ptr %retval, align 4
  br label %return

if.end3:                                          ; preds = %if.end
  store i32 0, ptr %retval, align 4
  br label %return

return:                                           ; preds = %if.end3, %if.then2, %if.then
  %8 = load i32, ptr %retval, align 4
  ret i32 %8
}

; Function Attrs: mustprogress nounwind uwtable
define linkonce_odr noundef nonnull align 8 dereferenceable(217) ptr @_ZNK9grpc_core13RefCountedPtrI28grpc_tls_credentials_optionsEdeEv(ptr noundef nonnull align 8 dereferenceable(8) %this) #5 comdat align 2 {
entry:
  %this.addr = alloca ptr, align 8
  store ptr %this, ptr %this.addr, align 8
  %this1 = load ptr, ptr %this.addr, align 8
  %value_ = getelementptr inbounds %"class.grpc_core::RefCountedPtr", ptr %this1, i32 0, i32 0
  %0 = load ptr, ptr %value_, align 8
  ret ptr %0
}

; Function Attrs: mustprogress uwtable
define noundef i32 @_ZNK14TlsCredentials8cmp_implEPK24grpc_channel_credentials(ptr noundef nonnull align 8 dereferenceable(24) %this, ptr noundef %other) unnamed_addr #4 align 2 {
entry:
  %retval = alloca i32, align 4
  %this.addr = alloca ptr, align 8
  %other.addr = alloca ptr, align 8
  %o = alloca ptr, align 8
  %ref.tmp = alloca ptr, align 8
  store ptr %this, ptr %this.addr, align 8
  store ptr %other, ptr %other.addr, align 8
  %this1 = load ptr, ptr %this.addr, align 8
  %0 = load ptr, ptr %other.addr, align 8
  store ptr %0, ptr %o, align 8
  %options_ = getelementptr inbounds %class.TlsCredentials, ptr %this1, i32 0, i32 1
  %call = call noundef nonnull align 8 dereferenceable(217) ptr @_ZNK9grpc_core13RefCountedPtrI28grpc_tls_credentials_optionsEdeEv(ptr noundef nonnull align 8 dereferenceable(8) %options_)
  %1 = load ptr, ptr %o, align 8
  %options_2 = getelementptr inbounds %class.TlsCredentials, ptr %1, i32 0, i32 1
  %call3 = call noundef nonnull align 8 dereferenceable(217) ptr @_ZNK9grpc_core13RefCountedPtrI28grpc_tls_credentials_optionsEdeEv(ptr noundef nonnull align 8 dereferenceable(8) %options_2)
  %call4 = call noundef zeroext i1 @_ZNK28grpc_tls_credentials_optionseqERKS_(ptr noundef nonnull align 8 dereferenceable(217) %call, ptr noundef nonnull align 8 dereferenceable(217) %call3)
  br i1 %call4, label %if.then, label %if.end

if.then:                                          ; preds = %entry
  store i32 0, ptr %retval, align 4
  br label %return

if.end:                                           ; preds = %entry
  store ptr %this1, ptr %ref.tmp, align 8
  %call5 = call noundef i32 @_ZN9grpc_core12QsortCompareIPK24grpc_channel_credentialsEEiRKT_S6_(ptr noundef nonnull align 8 dereferenceable(8) %ref.tmp, ptr noundef nonnull align 8 dereferenceable(8) %other.addr)
  store i32 %call5, ptr %retval, align 4
  br label %return

return:                                           ; preds = %if.end, %if.then
  %2 = load i32, ptr %retval, align 4
  ret i32 %2
}