; Function Attrs: mustprogress uwtable
define noundef i32 @_ZNK14TlsCredentials8cmp_implEPK24grpc_channel_credentials(ptr noundef nonnull readonly align 8 dereferenceable(24) %this, ptr noundef readonly %other) unnamed_addr #6 align 2 {
entry:
  %options_ = getelementptr inbounds i8, ptr %this, i64 16
  %0 = load ptr, ptr %options_, align 8
  %options_2 = getelementptr inbounds i8, ptr %other, i64 16
  %1 = load ptr, ptr %options_2, align 8
  %call4 = tail call noundef zeroext i1 @_ZNK28grpc_tls_credentials_optionseqERKS_(ptr noundef nonnull align 8 dereferenceable(217) %0, ptr noundef nonnull align 8 dereferenceable(217) %1)
  %cmp.i = icmp ult ptr %this, %other
  %cmp1.i = icmp ult ptr %other, %this
  %..i = zext i1 %cmp1.i to i32
  %retval.0.i = select i1 %cmp.i, i32 -1, i32 %..i
  %retval.0 = select i1 %call4, i32 0, i32 %retval.0.i
  ret i32 %retval.0
}